target datalayout = "e-m:e-p270:32:32-p271:32:32-p272:64:64-i64:64-i128:128-f80:128-n8:16:32:64-S128"
target triple = "x86_64-pc-linux-gnu"

%struct.archive_write = type { %struct.archive, i32, i64, i64, ptr, i64, ptr, ptr, ptr, ptr, ptr, i32, i32, ptr, ptr, ptr, ptr, ptr, ptr, ptr, ptr, ptr, ptr, ptr, ptr, ptr, ptr }
%struct.archive = type { i32, i32, ptr, i32, ptr, i32, i32, ptr, %struct.archive_string, ptr, i32, i32, ptr, ptr, i64, i64, i64, i8, i64 }
%struct.archive_string = type { ptr, i64, i64 }
%struct.iso9660 = type { i64, i32, ptr, ptr, %struct.archive_string, i64, i32, %struct.archive_string, %struct.archive_string, ptr, ptr, %struct.anon, %struct.anon.0, %struct.archive_rb_tree, %struct.vdd, %struct.vdd, i32, i32, i32, %struct.archive_string, %struct.archive_string, %struct.archive_string, %struct.archive_string, %struct.archive_string, %struct.archive_string, %struct.archive_string, i32, %struct.anon.1, ptr, i32, [65536 x i8], i64, i32, i64, i64, i64, %struct.anon.2, %struct.iso_option }
%struct.anon = type { ptr, ptr }
%struct.anon.0 = type { ptr, ptr }
%struct.archive_rb_tree = type { ptr, ptr }
%struct.vdd = type { ptr, i32, ptr, i32, i32, i32, i32, i32, i32 }
%struct.anon.1 = type { i8, [64 x i8], i32, ptr, i64, i32, i32, i64, i64, %struct.z_stream_s, i32, i64, i32 }
%struct.z_stream_s = type { ptr, i32, i64, ptr, i32, i64, ptr, ptr, ptr, ptr, ptr, i32, i64, i64 }
%struct.anon.2 = type { %struct.archive_string, ptr, %struct.archive_string, ptr, i8, %struct.archive_string, i8, i8, i16, i16 }
%struct.iso_option = type { i32 }
%struct.archive_rb_node = type { [2 x ptr], i64 }
%struct.isofile = type { ptr, ptr, ptr, ptr, ptr, %struct.archive_string, %struct.archive_string, %struct.archive_string, %struct.archive_string, i32, %struct.content, ptr, i32, i32, %struct.anon.7 }
%struct.content = type { i64, i64, i32, i32, ptr }
%struct.anon.7 = type { i8, i8, i32 }
%struct.hardlink = type { %struct.archive_rb_node, i32, %struct.anon.8 }
%struct.anon.8 = type { ptr, ptr }

@.str.5 = private unnamed_addr constant [22 x i8] c"Can't allocate memory\00", align 1

; Function Attrs: nounwind uwtable
define internal i32 @isofile_register_hardlink(ptr noundef %0, ptr noundef %1) #0 {
  %3 = alloca i32, align 4
  %4 = alloca ptr, align 8
  %5 = alloca ptr, align 8
  %6 = alloca ptr, align 8
  %7 = alloca ptr, align 8
  %8 = alloca ptr, align 8
  %9 = alloca i32, align 4
  store ptr %0, ptr %4, align 8, !tbaa !9
  store ptr %1, ptr %5, align 8, !tbaa !134
  call void @llvm.lifetime.start.p0(i64 8, ptr %6) #13
  %10 = load ptr, ptr %4, align 8, !tbaa !9
  %11 = getelementptr inbounds nuw %struct.archive_write, ptr %10, i32 0, i32 15
  %12 = load ptr, ptr %11, align 8, !tbaa !120
  store ptr %12, ptr %6, align 8, !tbaa !22
  call void @llvm.lifetime.start.p0(i64 8, ptr %7) #13
  call void @llvm.lifetime.start.p0(i64 8, ptr %8) #13
  %13 = load ptr, ptr %5, align 8, !tbaa !134
  %14 = getelementptr inbounds nuw %struct.isofile, ptr %13, i32 0, i32 4
  %15 = load ptr, ptr %14, align 8, !tbaa !135
  call void @archive_entry_set_nlink(ptr noundef %15, i32 noundef 1)
  %16 = load ptr, ptr %5, align 8, !tbaa !134
  %17 = getelementptr inbounds nuw %struct.isofile, ptr %16, i32 0, i32 4
  %18 = load ptr, ptr %17, align 8, !tbaa !135
  %19 = call ptr @archive_entry_hardlink(ptr noundef %18)
  store ptr %19, ptr %8, align 8, !tbaa !133
  %20 = load ptr, ptr %8, align 8, !tbaa !133
  %21 = icmp eq ptr %20, null
  br i1 %21, label %22, label %47

22:                                               ; preds = %2
  %23 = call noalias ptr @malloc(i64 noundef 48) #17
  store ptr %23, ptr %7, align 8, !tbaa !215
  %24 = load ptr, ptr %7, align 8, !tbaa !215
  %25 = icmp eq ptr %24, null
  br i1 %25, label %26, label %29

26:                                               ; preds = %22
  %27 = load ptr, ptr %4, align 8, !tbaa !9
  %28 = getelementptr inbounds nuw %struct.archive_write, ptr %27, i32 0, i32 0
  call void (ptr, i32, ptr, ...) @archive_set_error(ptr noundef %28, i32 noundef 12, ptr noundef @.str.5)
  store i32 -30, ptr %3, align 4
  store i32 1, ptr %9, align 4
  br label %76

29:                                               ; preds = %22
  %30 = load ptr, ptr %7, align 8, !tbaa !215
  %31 = getelementptr inbounds nuw %struct.hardlink, ptr %30, i32 0, i32 1
  store i32 1, ptr %31, align 8, !tbaa !217
  %32 = load ptr, ptr %5, align 8, !tbaa !134
  %33 = getelementptr inbounds nuw %struct.isofile, ptr %32, i32 0, i32 2
  store ptr null, ptr %33, align 8, !tbaa !219
  %34 = load ptr, ptr %5, align 8, !tbaa !134
  %35 = load ptr, ptr %7, align 8, !tbaa !215
  %36 = getelementptr inbounds nuw %struct.hardlink, ptr %35, i32 0, i32 2
  %37 = getelementptr inbounds nuw %struct.anon.8, ptr %36, i32 0, i32 0
  store ptr %34, ptr %37, align 8, !tbaa !220
  %38 = load ptr, ptr %5, align 8, !tbaa !134
  %39 = getelementptr inbounds nuw %struct.isofile, ptr %38, i32 0, i32 2
  %40 = load ptr, ptr %7, align 8, !tbaa !215
  %41 = getelementptr inbounds nuw %struct.hardlink, ptr %40, i32 0, i32 2
  %42 = getelementptr inbounds nuw %struct.anon.8, ptr %41, i32 0, i32 1
  store ptr %39, ptr %42, align 8, !tbaa !221
  %43 = load ptr, ptr %6, align 8, !tbaa !22
  %44 = getelementptr inbounds nuw %struct.iso9660, ptr %43, i32 0, i32 13
  %45 = load ptr, ptr %7, align 8, !tbaa !215
  %46 = call i32 @__archive_rb_tree_insert_node(ptr noundef %44, ptr noundef %45)
  br label %75

47:                                               ; preds = %2
  %48 = load ptr, ptr %6, align 8, !tbaa !22
  %49 = getelementptr inbounds nuw %struct.iso9660, ptr %48, i32 0, i32 13
  %50 = load ptr, ptr %8, align 8, !tbaa !133
  %51 = call ptr @__archive_rb_tree_find_node(ptr noundef %49, ptr noundef %50)
  store ptr %51, ptr %7, align 8, !tbaa !215
  %52 = load ptr, ptr %7, align 8, !tbaa !215
  %53 = icmp ne ptr %52, null
  br i1 %53, label %54, label %71

54:                                               ; preds = %47
  %55 = load ptr, ptr %5, align 8, !tbaa !134
  %56 = getelementptr inbounds nuw %struct.isofile, ptr %55, i32 0, i32 2
  store ptr null, ptr %56, align 8, !tbaa !219
  %57 = load ptr, ptr %5, align 8, !tbaa !134
  %58 = load ptr, ptr %7, align 8, !tbaa !215
  %59 = getelementptr inbounds nuw %struct.hardlink, ptr %58, i32 0, i32 2
  %60 = getelementptr inbounds nuw %struct.anon.8, ptr %59, i32 0, i32 1
  %61 = load ptr, ptr %60, align 8, !tbaa !221
  store ptr %57, ptr %61, align 8, !tbaa !134
  %62 = load ptr, ptr %5, align 8, !tbaa !134
  %63 = getelementptr inbounds nuw %struct.isofile, ptr %62, i32 0, i32 2
  %64 = load ptr, ptr %7, align 8, !tbaa !215
  %65 = getelementptr inbounds nuw %struct.hardlink, ptr %64, i32 0, i32 2
  %66 = getelementptr inbounds nuw %struct.anon.8, ptr %65, i32 0, i32 1
  store ptr %63, ptr %66, align 8, !tbaa !221
  %67 = load ptr, ptr %7, align 8, !tbaa !215
  %68 = getelementptr inbounds nuw %struct.hardlink, ptr %67, i32 0, i32 1
  %69 = load i32, ptr %68, align 8, !tbaa !217
  %70 = add nsw i32 %69, 1
  store i32 %70, ptr %68, align 8, !tbaa !217
  br label %71

71:                                               ; preds = %54, %47
  %72 = load ptr, ptr %5, align 8, !tbaa !134
  %73 = getelementptr inbounds nuw %struct.isofile, ptr %72, i32 0, i32 4
  %74 = load ptr, ptr %73, align 8, !tbaa !135
  call void @archive_entry_unset_size(ptr noundef %74)
  br label %75

75:                                               ; preds = %71, %29
  store i32 0, ptr %3, align 4
  store i32 1, ptr %9, align 4
  br label %76

76:                                               ; preds = %75, %26
  call void @llvm.lifetime.end.p0(i64 8, ptr %8) #13
  call void @llvm.lifetime.end.p0(i64 8, ptr %7) #13
  call void @llvm.lifetime.end.p0(i64 8, ptr %6) #13
  %77 = load i32, ptr %3, align 4
  ret i32 %77
}