; Function Attrs: nounwind uwtable
define internal fastcc range(i32 -30, 1) i32 @isofile_register_hardlink(ptr noundef %0, ptr noundef nonnull %1) unnamed_addr #0 {
  %3 = getelementptr inbounds nuw i8, ptr %0, i64 248
  %4 = load ptr, ptr %3, align 8, !tbaa !69
  %5 = getelementptr inbounds nuw i8, ptr %1, i64 32
  %6 = load ptr, ptr %5, align 8, !tbaa !78
  tail call void @archive_entry_set_nlink(ptr noundef %6, i32 noundef 1) #23
  %7 = load ptr, ptr %5, align 8, !tbaa !78
  %8 = tail call ptr @archive_entry_hardlink(ptr noundef %7) #23
  %9 = icmp eq ptr %8, null
  br i1 %9, label %10, label %21

10:                                               ; preds = %2
  %11 = tail call noalias dereferenceable_or_null(48) ptr @malloc(i64 noundef 48) #27
  %12 = icmp eq ptr %11, null
  br i1 %12, label %13, label %14

13:                                               ; preds = %10
  tail call void (ptr, i32, ptr, ...) @archive_set_error(ptr noundef nonnull %0, i32 noundef 12, ptr noundef nonnull @.str.5) #23
  br label %33

14:                                               ; preds = %10
  %15 = getelementptr inbounds nuw i8, ptr %11, i64 24
  store i32 1, ptr %15, align 8, !tbaa !181
  %16 = getelementptr inbounds nuw i8, ptr %1, i64 16
  store ptr null, ptr %16, align 8, !tbaa !182
  %17 = getelementptr inbounds nuw i8, ptr %11, i64 32
  store ptr %1, ptr %17, align 8, !tbaa !179
  %18 = getelementptr inbounds nuw i8, ptr %11, i64 40
  store ptr %16, ptr %18, align 8, !tbaa !243
  %19 = getelementptr inbounds nuw i8, ptr %4, i64 168
  %20 = tail call i32 @__archive_rb_tree_insert_node(ptr noundef nonnull %19, ptr noundef nonnull %11) #23
  br label %33

21:                                               ; preds = %2
  %22 = getelementptr inbounds nuw i8, ptr %4, i64 168
  %23 = tail call ptr @__archive_rb_tree_find_node(ptr noundef nonnull %22, ptr noundef nonnull %8) #23
  %.not = icmp eq ptr %23, null
  br i1 %.not, label %31, label %24

24:                                               ; preds = %21
  %25 = getelementptr inbounds nuw i8, ptr %1, i64 16
  store ptr null, ptr %25, align 8, !tbaa !182
  %26 = getelementptr inbounds nuw i8, ptr %23, i64 40
  %27 = load ptr, ptr %26, align 8, !tbaa !243
  store ptr %1, ptr %27, align 8, !tbaa !90
  store ptr %25, ptr %26, align 8, !tbaa !243
  %28 = getelementptr inbounds nuw i8, ptr %23, i64 24
  %29 = load i32, ptr %28, align 8, !tbaa !181
  %30 = add nsw i32 %29, 1
  store i32 %30, ptr %28, align 8, !tbaa !181
  br label %31

31:                                               ; preds = %24, %21
  %32 = load ptr, ptr %5, align 8, !tbaa !78
  tail call void @archive_entry_unset_size(ptr noundef %32) #23
  br label %33

33:                                               ; preds = %14, %31, %13
  %.0 = phi i32 [ -30, %13 ], [ 0, %31 ], [ 0, %14 ]
  ret i32 %.0
}